target datalayout = "e-m:e-p270:32:32-p271:32:32-p272:64:64-i64:64-i128:128-f80:128-n8:16:32:64-S128"
target triple = "x86_64-pc-linux-gnu"

%struct.mbedtls_ctr_drbg_context = type { [16 x i8], i32, i32, i64, i32, %struct.mbedtls_aes_context, ptr, ptr }
%struct.mbedtls_aes_context = type { i32, i64, [68 x i32] }

; Function Attrs: alwaysinline nounwind uwtable
define internal void @mbedtls_put_unaligned_uint64(ptr noundef %0, i64 noundef %1) #8 {
  %3 = alloca ptr, align 8
  %4 = alloca i64, align 8
  store ptr %0, ptr %3, align 8, !tbaa !29
  store i64 %1, ptr %4, align 8, !tbaa !16
  %5 = load ptr, ptr %3, align 8, !tbaa !29
  call void @llvm.memcpy.p0.p0.i64(ptr align 1 %5, ptr align 8 %4, i64 8, i1 false)
  ret void
}

; Function Attrs: alwaysinline nounwind uwtable
define internal i64 @mbedtls_get_unaligned_uint64(ptr noundef %0) #8 {
  %2 = alloca ptr, align 8
  %3 = alloca i64, align 8
  store ptr %0, ptr %2, align 8, !tbaa !29
  call void @llvm.lifetime.start.p0(i64 8, ptr %3) #10
  %4 = load ptr, ptr %2, align 8, !tbaa !29
  call void @llvm.memcpy.p0.p0.i64(ptr align 8 %3, ptr align 1 %4, i64 8, i1 false)
  %5 = load i64, ptr %3, align 8, !tbaa !16
  call void @llvm.lifetime.end.p0(i64 8, ptr %3) #10
  ret i64 %5
}

; Function Attrs: alwaysinline nounwind uwtable
define internal void @mbedtls_put_unaligned_uint32(ptr noundef %0, i32 noundef %1) #8 {
  %3 = alloca ptr, align 8
  %4 = alloca i32, align 4
  store ptr %0, ptr %3, align 8, !tbaa !29
  store i32 %1, ptr %4, align 4, !tbaa !14
  %5 = load ptr, ptr %3, align 8, !tbaa !29
  call void @llvm.memcpy.p0.p0.i64(ptr align 1 %5, ptr align 4 %4, i64 4, i1 false)
  ret void
}

; Function Attrs: alwaysinline nounwind uwtable
define internal i32 @mbedtls_get_unaligned_uint32(ptr noundef %0) #8 {
  %2 = alloca ptr, align 8
  %3 = alloca i32, align 4
  store ptr %0, ptr %2, align 8, !tbaa !29
  call void @llvm.lifetime.start.p0(i64 4, ptr %3) #10
  %4 = load ptr, ptr %2, align 8, !tbaa !29
  call void @llvm.memcpy.p0.p0.i64(ptr align 4 %3, ptr align 1 %4, i64 4, i1 false)
  %5 = load i32, ptr %3, align 4, !tbaa !14
  call void @llvm.lifetime.end.p0(i64 4, ptr %3) #10
  ret i32 %5
}

; Function Attrs: alwaysinline nounwind uwtable
define internal void @mbedtls_xor(ptr noundef %0, ptr noundef %1, ptr noundef %2, i64 noundef %3) #8 {
  %5 = alloca ptr, align 8
  %6 = alloca ptr, align 8
  %7 = alloca ptr, align 8
  %8 = alloca i64, align 8
  %9 = alloca i64, align 8
  %10 = alloca i64, align 8
  store ptr %0, ptr %5, align 8, !tbaa !19
  store ptr %1, ptr %6, align 8, !tbaa !19
  store ptr %2, ptr %7, align 8, !tbaa !19
  store i64 %3, ptr %8, align 8, !tbaa !16
  call void @llvm.lifetime.start.p0(i64 8, ptr %9) #10
  store i64 0, ptr %9, align 8, !tbaa !16
  br label %11

11:                                               ; preds = %30, %4
  %12 = load i64, ptr %9, align 8, !tbaa !16
  %13 = add i64 %12, 8
  %14 = load i64, ptr %8, align 8, !tbaa !16
  %15 = icmp ule i64 %13, %14
  br i1 %15, label %16, label %33

16:                                               ; preds = %11
  call void @llvm.lifetime.start.p0(i64 8, ptr %10) #10
  %17 = load ptr, ptr %6, align 8, !tbaa !19
  %18 = load i64, ptr %9, align 8, !tbaa !16
  %19 = getelementptr inbounds nuw i8, ptr %17, i64 %18
  %20 = call i64 @mbedtls_get_unaligned_uint64(ptr noundef %19)
  %21 = load ptr, ptr %7, align 8, !tbaa !19
  %22 = load i64, ptr %9, align 8, !tbaa !16
  %23 = getelementptr inbounds nuw i8, ptr %21, i64 %22
  %24 = call i64 @mbedtls_get_unaligned_uint64(ptr noundef %23)
  %25 = xor i64 %20, %24
  store i64 %25, ptr %10, align 8, !tbaa !16
  %26 = load ptr, ptr %5, align 8, !tbaa !19
  %27 = load i64, ptr %9, align 8, !tbaa !16
  %28 = getelementptr inbounds nuw i8, ptr %26, i64 %27
  %29 = load i64, ptr %10, align 8, !tbaa !16
  call void @mbedtls_put_unaligned_uint64(ptr noundef %28, i64 noundef %29)
  call void @llvm.lifetime.end.p0(i64 8, ptr %10) #10
  br label %30

30:                                               ; preds = %16
  %31 = load i64, ptr %9, align 8, !tbaa !16
  %32 = add i64 %31, 8
  store i64 %32, ptr %9, align 8, !tbaa !16
  br label %11, !llvm.loop !33

33:                                               ; preds = %11
  br label %34

34:                                               ; preds = %54, %33
  %35 = load i64, ptr %9, align 8, !tbaa !16
  %36 = load i64, ptr %8, align 8, !tbaa !16
  %37 = icmp ult i64 %35, %36
  br i1 %37, label %38, label %57

38:                                               ; preds = %34
  %39 = load ptr, ptr %6, align 8, !tbaa !19
  %40 = load i64, ptr %9, align 8, !tbaa !16
  %41 = getelementptr inbounds nuw i8, ptr %39, i64 %40
  %42 = load i8, ptr %41, align 1, !tbaa !21
  %43 = zext i8 %42 to i32
  %44 = load ptr, ptr %7, align 8, !tbaa !19
  %45 = load i64, ptr %9, align 8, !tbaa !16
  %46 = getelementptr inbounds nuw i8, ptr %44, i64 %45
  %47 = load i8, ptr %46, align 1, !tbaa !21
  %48 = zext i8 %47 to i32
  %49 = xor i32 %43, %48
  %50 = trunc i32 %49 to i8
  %51 = load ptr, ptr %5, align 8, !tbaa !19
  %52 = load i64, ptr %9, align 8, !tbaa !16
  %53 = getelementptr inbounds nuw i8, ptr %51, i64 %52
  store i8 %50, ptr %53, align 1, !tbaa !21
  br label %54

54:                                               ; preds = %38
  %55 = load i64, ptr %9, align 8, !tbaa !16
  %56 = add i64 %55, 1
  store i64 %56, ptr %9, align 8, !tbaa !16
  br label %34, !llvm.loop !34

57:                                               ; preds = %34
  call void @llvm.lifetime.end.p0(i64 8, ptr %9) #10
  ret void
}

; Function Attrs: inlinehint nounwind uwtable
define internal void @mbedtls_ctr_increment_counter(ptr noundef %0) #4 {
  %2 = alloca ptr, align 8
  %3 = alloca i32, align 4
  %4 = alloca i32, align 4
  %5 = alloca i32, align 4
  store ptr %0, ptr %2, align 8, !tbaa !19
  call void @llvm.lifetime.start.p0(i64 4, ptr %3) #10
  store i32 3, ptr %3, align 4, !tbaa !14
  br label %6

6:                                                ; preds = %33, %1
  call void @llvm.lifetime.start.p0(i64 4, ptr %4) #10
  %7 = load ptr, ptr %2, align 8, !tbaa !19
  %8 = load i32, ptr %3, align 4, !tbaa !14
  %9 = shl i32 %8, 2
  %10 = sext i32 %9 to i64
  %11 = getelementptr inbounds i8, ptr %7, i64 %10
  %12 = call i32 @mbedtls_get_unaligned_uint32(ptr noundef %11)
  %13 = call i32 @llvm.bswap.i32(i32 %12)
  store i32 %13, ptr %4, align 4, !tbaa !14
  %14 = load i32, ptr %4, align 4, !tbaa !14
  %15 = add i32 %14, 1
  store i32 %15, ptr %4, align 4, !tbaa !14
  %16 = load ptr, ptr %2, align 8, !tbaa !19
  %17 = load i32, ptr %3, align 4, !tbaa !14
  %18 = shl i32 %17, 2
  %19 = sext i32 %18 to i64
  %20 = getelementptr inbounds i8, ptr %16, i64 %19
  %21 = load i32, ptr %4, align 4, !tbaa !14
  %22 = call i32 @llvm.bswap.i32(i32 %21)
  call void @mbedtls_put_unaligned_uint32(ptr noundef %20, i32 noundef %22)
  %23 = load i32, ptr %4, align 4, !tbaa !14
  %24 = icmp ne i32 %23, 0
  br i1 %24, label %28, label %25

25:                                               ; preds = %6
  %26 = load i32, ptr %3, align 4, !tbaa !14
  %27 = icmp eq i32 %26, 0
  br i1 %27, label %28, label %29

28:                                               ; preds = %25, %6
  store i32 2, ptr %5, align 4
  br label %30

29:                                               ; preds = %25
  store i32 0, ptr %5, align 4
  br label %30

30:                                               ; preds = %29, %28
  call void @llvm.lifetime.end.p0(i64 4, ptr %4) #10
  %31 = load i32, ptr %5, align 4
  switch i32 %31, label %36 [
    i32 0, label %32
  ]

32:                                               ; preds = %30
  br label %33

33:                                               ; preds = %32
  %34 = load i32, ptr %3, align 4, !tbaa !14
  %35 = add nsw i32 %34, -1
  store i32 %35, ptr %3, align 4, !tbaa !14
  br label %6

36:                                               ; preds = %30
  call void @llvm.lifetime.end.p0(i64 4, ptr %3) #10
  br label %37

37:                                               ; preds = %36
  ret void
}

; Function Attrs: nounwind uwtable
define internal i32 @ctr_drbg_update_internal(ptr noundef %0, ptr noundef %1) #0 {
  %3 = alloca ptr, align 8
  %4 = alloca ptr, align 8
  %5 = alloca [48 x i8], align 16
  %6 = alloca ptr, align 8
  %7 = alloca i32, align 4
  %8 = alloca i32, align 4
  store ptr %0, ptr %3, align 8, !tbaa !3
  store ptr %1, ptr %4, align 8, !tbaa !19
  call void @llvm.lifetime.start.p0(i64 48, ptr %5) #10
  call void @llvm.lifetime.start.p0(i64 8, ptr %6) #10
  %9 = getelementptr inbounds [48 x i8], ptr %5, i64 0, i64 0
  store ptr %9, ptr %6, align 8, !tbaa !19
  call void @llvm.lifetime.start.p0(i64 4, ptr %7) #10
  call void @llvm.lifetime.start.p0(i64 4, ptr %8) #10
  store i32 0, ptr %8, align 4, !tbaa !14
  %10 = getelementptr inbounds [48 x i8], ptr %5, i64 0, i64 0
  call void @llvm.memset.p0.i64(ptr align 16 %10, i8 0, i64 48, i1 false)
  store i32 0, ptr %7, align 4, !tbaa !14
  br label %11

11:                                               ; preds = %30, %2
  %12 = load i32, ptr %7, align 4, !tbaa !14
  %13 = icmp slt i32 %12, 48
  br i1 %13, label %14, label %33

14:                                               ; preds = %11
  %15 = load ptr, ptr %3, align 8, !tbaa !3
  %16 = getelementptr inbounds nuw %struct.mbedtls_ctr_drbg_context, ptr %15, i32 0, i32 0
  %17 = getelementptr inbounds [16 x i8], ptr %16, i64 0, i64 0
  call void @mbedtls_ctr_increment_counter(ptr noundef %17)
  %18 = load ptr, ptr %3, align 8, !tbaa !3
  %19 = getelementptr inbounds nuw %struct.mbedtls_ctr_drbg_context, ptr %18, i32 0, i32 5
  %20 = load ptr, ptr %3, align 8, !tbaa !3
  %21 = getelementptr inbounds nuw %struct.mbedtls_ctr_drbg_context, ptr %20, i32 0, i32 0
  %22 = getelementptr inbounds [16 x i8], ptr %21, i64 0, i64 0
  %23 = load ptr, ptr %6, align 8, !tbaa !19
  %24 = call i32 @mbedtls_aes_crypt_ecb(ptr noundef %19, i32 noundef 1, ptr noundef %22, ptr noundef %23)
  store i32 %24, ptr %8, align 4, !tbaa !14
  %25 = icmp ne i32 %24, 0
  br i1 %25, label %26, label %27

26:                                               ; preds = %14
  br label %49

27:                                               ; preds = %14
  %28 = load ptr, ptr %6, align 8, !tbaa !19
  %29 = getelementptr inbounds i8, ptr %28, i64 16
  store ptr %29, ptr %6, align 8, !tbaa !19
  br label %30

30:                                               ; preds = %27
  %31 = load i32, ptr %7, align 4, !tbaa !14
  %32 = add nsw i32 %31, 16
  store i32 %32, ptr %7, align 4, !tbaa !14
  br label %11, !llvm.loop !27

33:                                               ; preds = %11
  %34 = getelementptr inbounds [48 x i8], ptr %5, i64 0, i64 0
  %35 = getelementptr inbounds [48 x i8], ptr %5, i64 0, i64 0
  %36 = load ptr, ptr %4, align 8, !tbaa !19
  call void @mbedtls_xor(ptr noundef %34, ptr noundef %35, ptr noundef %36, i64 noundef 48)
  %37 = load ptr, ptr %3, align 8, !tbaa !3
  %38 = getelementptr inbounds nuw %struct.mbedtls_ctr_drbg_context, ptr %37, i32 0, i32 5
  %39 = getelementptr inbounds [48 x i8], ptr %5, i64 0, i64 0
  %40 = call i32 @mbedtls_aes_setkey_enc(ptr noundef %38, ptr noundef %39, i32 noundef 256)
  store i32 %40, ptr %8, align 4, !tbaa !14
  %41 = icmp ne i32 %40, 0
  br i1 %41, label %42, label %43

42:                                               ; preds = %33
  br label %49

43:                                               ; preds = %33
  %44 = load ptr, ptr %3, align 8, !tbaa !3
  %45 = getelementptr inbounds nuw %struct.mbedtls_ctr_drbg_context, ptr %44, i32 0, i32 0
  %46 = getelementptr inbounds [16 x i8], ptr %45, i64 0, i64 0
  %47 = getelementptr inbounds [48 x i8], ptr %5, i64 0, i64 0
  %48 = getelementptr inbounds i8, ptr %47, i64 32
  call void @llvm.memcpy.p0.p0.i64(ptr align 8 %46, ptr align 1 %48, i64 16, i1 false)
  br label %49

49:                                               ; preds = %43, %42, %26
  %50 = getelementptr inbounds [48 x i8], ptr %5, i64 0, i64 0
  call void @mbedtls_platform_zeroize(ptr noundef %50, i64 noundef 48)
  %51 = load i32, ptr %8, align 4, !tbaa !14
  call void @llvm.lifetime.end.p0(i64 4, ptr %8) #10
  call void @llvm.lifetime.end.p0(i64 4, ptr %7) #10
  call void @llvm.lifetime.end.p0(i64 8, ptr %6) #10
  call void @llvm.lifetime.end.p0(i64 48, ptr %5) #10
  ret i32 %51
}

; Function Attrs: nounwind uwtable
define hidden i32 @mbedtls_ctr_drbg_update(ptr noundef %0, ptr noundef %1, i64 noundef %2) #0 {
  %4 = alloca i32, align 4
  %5 = alloca ptr, align 8
  %6 = alloca ptr, align 8
  %7 = alloca i64, align 8
  %8 = alloca [48 x i8], align 16
  %9 = alloca i32, align 4
  %10 = alloca i32, align 4
  store ptr %0, ptr %5, align 8, !tbaa !3
  store ptr %1, ptr %6, align 8, !tbaa !19
  store i64 %2, ptr %7, align 8, !tbaa !16
  call void @llvm.lifetime.start.p0(i64 48, ptr %8) #10
  call void @llvm.lifetime.start.p0(i64 4, ptr %9) #10
  store i32 -110, ptr %9, align 4, !tbaa !14
  %11 = load i64, ptr %7, align 8, !tbaa !16
  %12 = icmp eq i64 %11, 0
  br i1 %12, label %13, label %14

13:                                               ; preds = %3
  store i32 0, ptr %4, align 4
  store i32 1, ptr %10, align 4
  br label %31

14:                                               ; preds = %3
  %15 = getelementptr inbounds [48 x i8], ptr %8, i64 0, i64 0
  %16 = load ptr, ptr %6, align 8, !tbaa !19
  %17 = load i64, ptr %7, align 8, !tbaa !16
  %18 = call i32 @block_cipher_df(ptr noundef %15, ptr noundef %16, i64 noundef %17)
  store i32 %18, ptr %9, align 4, !tbaa !14
  %19 = icmp ne i32 %18, 0
  br i1 %19, label %20, label %21

20:                                               ; preds = %14
  br label %28

21:                                               ; preds = %14
  %22 = load ptr, ptr %5, align 8, !tbaa !3
  %23 = getelementptr inbounds [48 x i8], ptr %8, i64 0, i64 0
  %24 = call i32 @ctr_drbg_update_internal(ptr noundef %22, ptr noundef %23)
  store i32 %24, ptr %9, align 4, !tbaa !14
  %25 = icmp ne i32 %24, 0
  br i1 %25, label %26, label %27

26:                                               ; preds = %21
  br label %28

27:                                               ; preds = %21
  br label %28

28:                                               ; preds = %27, %26, %20
  %29 = getelementptr inbounds [48 x i8], ptr %8, i64 0, i64 0
  call void @mbedtls_platform_zeroize(ptr noundef %29, i64 noundef 48)
  %30 = load i32, ptr %9, align 4, !tbaa !14
  store i32 %30, ptr %4, align 4
  store i32 1, ptr %10, align 4
  br label %31

31:                                               ; preds = %28, %13
  call void @llvm.lifetime.end.p0(i64 4, ptr %9) #10
  call void @llvm.lifetime.end.p0(i64 48, ptr %8) #10
  %32 = load i32, ptr %4, align 4
  ret i32 %32
}