; Function Attrs: nounwind uwtable
define hidden i32 @mbedtls_ctr_drbg_update(ptr noundef %0, ptr noundef readonly captures(none) %1, i64 noundef %2) local_unnamed_addr #0 {
  %4 = alloca [48 x i8], align 16
  %5 = alloca [48 x i8], align 16
  call void @llvm.lifetime.start.p0(i64 48, ptr nonnull %5) #14
  %6 = icmp eq i64 %2, 0
  br i1 %6, label %32, label %7

7:                                                ; preds = %3
  %8 = call fastcc i32 @block_cipher_df(ptr noundef %5, ptr noundef %1, i64 noundef %2)
  %.not = icmp eq i32 %8, 0
  br i1 %.not, label %9, label %31

9:                                                ; preds = %7
  call void @llvm.lifetime.start.p0(i64 48, ptr nonnull %4) #14
  call void @llvm.memset.p0.i64(ptr noundef nonnull align 16 dereferenceable(48) %4, i8 0, i64 48, i1 false)
  %10 = getelementptr inbounds nuw i8, ptr %0, i64 40
  br label %.preheader17.i

.preheader17.i:                                   ; preds = %20, %9
  %.01019.i = phi i32 [ 0, %9 ], [ %22, %20 ]
  %.01118.i = phi ptr [ %4, %9 ], [ %21, %20 ]
  br label %11

11:                                               ; preds = %11, %.preheader17.i
  %indvars.iv.i.i = phi i64 [ %indvars.iv.next.i.i, %11 ], [ 3, %.preheader17.i ]
  %12 = shl i64 %indvars.iv.i.i, 2
  %13 = getelementptr inbounds i8, ptr %0, i64 %12
  %.0.copyload.i.i.i = load i32, ptr %13, align 1
  %14 = call i32 @llvm.bswap.i32(i32 %.0.copyload.i.i.i)
  %15 = add i32 %14, 1
  %16 = call i32 @llvm.bswap.i32(i32 %15)
  store i32 %16, ptr %13, align 1
  %17 = icmp eq i32 %15, 0
  %18 = icmp ne i64 %indvars.iv.i.i, 0
  %or.cond.not.i.i = and i1 %18, %17
  %indvars.iv.next.i.i = add nsw i64 %indvars.iv.i.i, -1
  br i1 %or.cond.not.i.i, label %11, label %mbedtls_ctr_increment_counter.exit.i

mbedtls_ctr_increment_counter.exit.i:             ; preds = %11
  %19 = call i32 @mbedtls_aes_crypt_ecb(ptr noundef nonnull %10, i32 noundef 1, ptr noundef nonnull %0, ptr noundef nonnull %.01118.i) #14
  %.not14.i = icmp eq i32 %19, 0
  br i1 %.not14.i, label %20, label %ctr_drbg_update_internal.exit

20:                                               ; preds = %mbedtls_ctr_increment_counter.exit.i
  %21 = getelementptr inbounds nuw i8, ptr %.01118.i, i64 16
  %22 = add nuw nsw i32 %.01019.i, 16
  %23 = icmp samesign ult i32 %.01019.i, 32
  br i1 %23, label %.preheader17.i, label %.preheader16.i, !llvm.loop !15

.preheader16.i:                                   ; preds = %20, %.preheader16.i
  %.0.i20.i = phi i64 [ %24, %.preheader16.i ], [ 0, %20 ]
  %24 = add nuw nsw i64 %.0.i20.i, 8
  %25 = getelementptr inbounds nuw i8, ptr %4, i64 %.0.i20.i
  %.0.copyload.i15.i = load i64, ptr %25, align 8
  %26 = getelementptr inbounds nuw i8, ptr %5, i64 %.0.i20.i
  %.0.copyload.i.i = load i64, ptr %26, align 8
  %27 = xor i64 %.0.copyload.i.i, %.0.copyload.i15.i
  store i64 %27, ptr %25, align 8
  %.not.i.i = icmp samesign ugt i64 %.0.i20.i, 32
  br i1 %.not.i.i, label %mbedtls_xor.exit.i, label %.preheader16.i, !llvm.loop !17

mbedtls_xor.exit.i:                               ; preds = %.preheader16.i
  %28 = call i32 @mbedtls_aes_setkey_enc(ptr noundef nonnull %10, ptr noundef nonnull %4, i32 noundef 256) #14
  %.not.i = icmp eq i32 %28, 0
  br i1 %.not.i, label %29, label %ctr_drbg_update_internal.exit

29:                                               ; preds = %mbedtls_xor.exit.i
  %30 = getelementptr inbounds nuw i8, ptr %4, i64 32
  call void @llvm.memcpy.p0.p0.i64(ptr noundef nonnull align 8 dereferenceable(16) %0, ptr noundef nonnull align 16 dereferenceable(16) %30, i64 16, i1 false)
  br label %ctr_drbg_update_internal.exit

ctr_drbg_update_internal.exit:                    ; preds = %mbedtls_ctr_increment_counter.exit.i, %mbedtls_xor.exit.i, %29
  %.0.i = phi i32 [ %28, %mbedtls_xor.exit.i ], [ 0, %29 ], [ %19, %mbedtls_ctr_increment_counter.exit.i ]
  call void @mbedtls_platform_zeroize(ptr noundef nonnull %4, i64 noundef 48) #14
  call void @llvm.lifetime.end.p0(i64 48, ptr nonnull %4) #14
  br label %31

31:                                               ; preds = %ctr_drbg_update_internal.exit, %7
  %.0 = phi i32 [ %8, %7 ], [ %.0.i, %ctr_drbg_update_internal.exit ]
  call void @mbedtls_platform_zeroize(ptr noundef nonnull %5, i64 noundef 48) #14
  br label %32

32:                                               ; preds = %3, %31
  %.05 = phi i32 [ %.0, %31 ], [ 0, %3 ]
  call void @llvm.lifetime.end.p0(i64 48, ptr nonnull %5) #14
  ret i32 %.05
}